target datalayout = "e-m:e-p270:32:32-p271:32:32-p272:64:64-i64:64-i128:128-f80:128-n8:16:32:64-S128"
target triple = "x86_64-pc-linux-gnu"

%class.anon.667 = type { i8 }
%class.anon.669 = type { i8 }

@.str.277 = private unnamed_addr constant [9 x i8] c"function\00", align 1

; Function Attrs: mustprogress nounwind uwtable
define internal noundef ptr @"_ZZZZL21DOCTEST_ANON_FUNC_112vENK3$_0clEP9lua_StateENKUlS1_E_clES1_ENKUlPvPKciiPKimE_cvPFvS3_S5_iiS7_mEEv"(ptr noundef nonnull align 1 dereferenceable(1) %0) #1 align 2 {
  %2 = alloca ptr, align 8
  store ptr %0, ptr %2, align 8
  ret ptr @"_ZZZZL21DOCTEST_ANON_FUNC_112vENK3$_0clEP9lua_StateENKUlS1_E_clES1_ENUlPvPKciiPKimE_8__invokeES3_S5_iiS7_m"
}

; Function Attrs: mustprogress uwtable
define internal noundef i32 @"_ZZZL21DOCTEST_ANON_FUNC_112vENK3$_0clEP9lua_StateENKUlS1_E_clES1_"(ptr noundef nonnull align 1 dereferenceable(1) %0, ptr noundef %1) #4 align 2 {
  %3 = alloca ptr, align 8
  %4 = alloca ptr, align 8
  %5 = alloca %class.anon.669, align 1
  store ptr %0, ptr %3, align 8
  store ptr %1, ptr %4, align 8
  %6 = load ptr, ptr %4, align 8
  %7 = call noundef i32 @_Z15lua_isLfunctionP9lua_Statei(ptr noundef %6, i32 noundef 1)
  %8 = icmp ne i32 %7, 0
  br i1 %8, label %9, label %10

9:                                                ; preds = %2
  br label %13

10:                                               ; preds = %2
  %11 = load ptr, ptr %4, align 8
  call void @_Z15luaL_typeerrorLP9lua_StateiPKc(ptr noundef %11, i32 noundef 1, ptr noundef @.str.277) #19
  unreachable

12:                                               ; No predecessors!
  br label %13

13:                                               ; preds = %12, %9
  %14 = load ptr, ptr %4, align 8
  call void @_Z15lua_createtableP9lua_Stateii(ptr noundef %14, i32 noundef 0, i32 noundef 0)
  %15 = load ptr, ptr %4, align 8
  %16 = load ptr, ptr %4, align 8
  %17 = call noundef ptr @"_ZZZZL21DOCTEST_ANON_FUNC_112vENK3$_0clEP9lua_StateENKUlS1_E_clES1_ENKUlPvPKciiPKimE_cvPFvS3_S5_iiS7_mEEv"(ptr noundef nonnull align 1 dereferenceable(1) %5) #16
  call void @_Z15lua_getcoverageP9lua_StateiPvPFvS1_PKciiPKimE(ptr noundef %15, i32 noundef 1, ptr noundef %16, ptr noundef %17)
  ret i32 1
}

; Function Attrs: mustprogress uwtable
define internal noundef i32 @"_ZZZL21DOCTEST_ANON_FUNC_112vENK3$_0clEP9lua_StateENUlS1_E_8__invokeES1_"(ptr noundef %0) #4 align 2 {
  %2 = alloca ptr, align 8
  %3 = alloca %class.anon.667, align 1
  store ptr %0, ptr %2, align 8
  %4 = load ptr, ptr %2, align 8
  %5 = call noundef i32 @"_ZZZL21DOCTEST_ANON_FUNC_112vENK3$_0clEP9lua_StateENKUlS1_E_clES1_"(ptr noundef nonnull align 1 dereferenceable(1) %3, ptr noundef %4)
  ret i32 %5
}