; Function Attrs: mustprogress uwtable
define internal noundef i32 @"_ZZZL21DOCTEST_ANON_FUNC_112vENK3$_0clEP9lua_StateENUlS1_E_8__invokeES1_"(ptr noundef %0) #4 align 2 {
  %2 = tail call noundef i32 @_Z15lua_isLfunctionP9lua_Statei(ptr noundef %0, i32 noundef 1)
  %.not.i = icmp eq i32 %2, 0
  br i1 %.not.i, label %3, label %"_ZZZL21DOCTEST_ANON_FUNC_112vENK3$_0clEP9lua_StateENKUlS1_E_clES1_.exit"

3:                                                ; preds = %1
  tail call void @_Z15luaL_typeerrorLP9lua_StateiPKc(ptr noundef %0, i32 noundef 1, ptr noundef nonnull @.str.277) #34
  unreachable

"_ZZZL21DOCTEST_ANON_FUNC_112vENK3$_0clEP9lua_StateENKUlS1_E_clES1_.exit": ; preds = %1
  tail call void @_Z15lua_createtableP9lua_Stateii(ptr noundef %0, i32 noundef 0, i32 noundef 0)
  tail call void @_Z15lua_getcoverageP9lua_StateiPvPFvS1_PKciiPKimE(ptr noundef %0, i32 noundef 1, ptr noundef %0, ptr noundef nonnull @"_ZZZZL21DOCTEST_ANON_FUNC_112vENK3$_0clEP9lua_StateENKUlS1_E_clES1_ENUlPvPKciiPKimE_8__invokeES3_S5_iiS7_m")
  ret i32 1
}